target datalayout = "e-m:e-p270:32:32-p271:32:32-p272:64:64-i64:64-i128:128-f80:128-n8:16:32:64-S128"
target triple = "x86_64-pc-linux-gnu"

@.str.3 = private unnamed_addr constant [2 x i8] c"\0A\00", align 1
@.str.4 = private unnamed_addr constant [38 x i8] c"    write_aiger [options] [filename]\0A\00", align 1
@.str.5 = private unnamed_addr constant [77 x i8] c"Write the current design to an AIGER file. The design must be flattened and\0A\00", align 1
@.str.6 = private unnamed_addr constant [73 x i8] c"must not contain any cell types except $_AND_, $_NOT_, simple FF types,\0A\00", align 1
@.str.7 = private unnamed_addr constant [50 x i8] c"$assert and $assume cells, and $initstate cells.\0A\00", align 1
@.str.8 = private unnamed_addr constant [75 x i8] c"$assert and $assume cells are converted to AIGER bad state properties and\0A\00", align 1
@.str.9 = private unnamed_addr constant [24 x i8] c"invariant constraints.\0A\00", align 1
@.str.10 = private unnamed_addr constant [12 x i8] c"    -ascii\0A\00", align 1
@.str.11 = private unnamed_addr constant [45 x i8] c"        write ASCII version of AIGER format\0A\00", align 1
@.str.12 = private unnamed_addr constant [12 x i8] c"    -zinit\0A\00", align 1
@.str.13 = private unnamed_addr constant [75 x i8] c"        convert FFs to zero-initialized FFs, adding additional inputs for\0A\00", align 1
@.str.14 = private unnamed_addr constant [28 x i8] c"        uninitialized FFs.\0A\00", align 1
@.str.15 = private unnamed_addr constant [12 x i8] c"    -miter\0A\00", align 1
@.str.16 = private unnamed_addr constant [55 x i8] c"        design outputs are AIGER bad state properties\0A\00", align 1
@.str.17 = private unnamed_addr constant [14 x i8] c"    -symbols\0A\00", align 1
@.str.18 = private unnamed_addr constant [60 x i8] c"        include a symbol table in the generated AIGER file\0A\00", align 1
@.str.19 = private unnamed_addr constant [21 x i8] c"    -map <filename>\0A\00", align 1
@.str.20 = private unnamed_addr constant [57 x i8] c"        write an extra file with port and latch symbols\0A\00", align 1
@.str.21 = private unnamed_addr constant [22 x i8] c"    -vmap <filename>\0A\00", align 1
@.str.22 = private unnamed_addr constant [37 x i8] c"        like -map, but more verbose\0A\00", align 1
@.str.23 = private unnamed_addr constant [21 x i8] c"    -no-startoffset\0A\00", align 1
@.str.24 = private unnamed_addr constant [75 x i8] c"        make indexes zero based, enable using map files with smt solvers.\0A\00", align 1
@.str.25 = private unnamed_addr constant [23 x i8] c"    -ywmap <filename>\0A\00", align 1
@.str.26 = private unnamed_addr constant [75 x i8] c"        write a map file for conversion to and from yosys witness traces.\0A\00", align 1
@.str.27 = private unnamed_addr constant [20 x i8] c"    -I, -O, -B, -L\0A\00", align 1
@.str.28 = private unnamed_addr constant [81 x i8] c"        If the design contains no input/output/assert/flip-flop then create one\0A\00", align 1
@.str.29 = private unnamed_addr constant [81 x i8] c"        dummy input/output/bad_state-pin or latch to make the tools reading the\0A\00", align 1
@.str.30 = private unnamed_addr constant [27 x i8] c"        AIGER file happy.\0A\00", align 1

; Function Attrs: mustprogress uwtable
define internal void @_ZN12_GLOBAL__N_112AigerBackend4helpEv(ptr noundef nonnull align 8 dereferenceable(136) %0) unnamed_addr #4 align 2 {
  %2 = alloca ptr, align 8
  store ptr %0, ptr %2, align 8
  call void (ptr, ...) @_ZN5Yosys3logEPKcz(ptr noundef @.str.3)
  call void (ptr, ...) @_ZN5Yosys3logEPKcz(ptr noundef @.str.4)
  call void (ptr, ...) @_ZN5Yosys3logEPKcz(ptr noundef @.str.3)
  call void (ptr, ...) @_ZN5Yosys3logEPKcz(ptr noundef @.str.5)
  call void (ptr, ...) @_ZN5Yosys3logEPKcz(ptr noundef @.str.6)
  call void (ptr, ...) @_ZN5Yosys3logEPKcz(ptr noundef @.str.7)
  call void (ptr, ...) @_ZN5Yosys3logEPKcz(ptr noundef @.str.3)
  call void (ptr, ...) @_ZN5Yosys3logEPKcz(ptr noundef @.str.8)
  call void (ptr, ...) @_ZN5Yosys3logEPKcz(ptr noundef @.str.9)
  call void (ptr, ...) @_ZN5Yosys3logEPKcz(ptr noundef @.str.3)
  call void (ptr, ...) @_ZN5Yosys3logEPKcz(ptr noundef @.str.10)
  call void (ptr, ...) @_ZN5Yosys3logEPKcz(ptr noundef @.str.11)
  call void (ptr, ...) @_ZN5Yosys3logEPKcz(ptr noundef @.str.3)
  call void (ptr, ...) @_ZN5Yosys3logEPKcz(ptr noundef @.str.12)
  call void (ptr, ...) @_ZN5Yosys3logEPKcz(ptr noundef @.str.13)
  call void (ptr, ...) @_ZN5Yosys3logEPKcz(ptr noundef @.str.14)
  call void (ptr, ...) @_ZN5Yosys3logEPKcz(ptr noundef @.str.3)
  call void (ptr, ...) @_ZN5Yosys3logEPKcz(ptr noundef @.str.15)
  call void (ptr, ...) @_ZN5Yosys3logEPKcz(ptr noundef @.str.16)
  call void (ptr, ...) @_ZN5Yosys3logEPKcz(ptr noundef @.str.3)
  call void (ptr, ...) @_ZN5Yosys3logEPKcz(ptr noundef @.str.17)
  call void (ptr, ...) @_ZN5Yosys3logEPKcz(ptr noundef @.str.18)
  call void (ptr, ...) @_ZN5Yosys3logEPKcz(ptr noundef @.str.3)
  call void (ptr, ...) @_ZN5Yosys3logEPKcz(ptr noundef @.str.19)
  call void (ptr, ...) @_ZN5Yosys3logEPKcz(ptr noundef @.str.20)
  call void (ptr, ...) @_ZN5Yosys3logEPKcz(ptr noundef @.str.3)
  call void (ptr, ...) @_ZN5Yosys3logEPKcz(ptr noundef @.str.21)
  call void (ptr, ...) @_ZN5Yosys3logEPKcz(ptr noundef @.str.22)
  call void (ptr, ...) @_ZN5Yosys3logEPKcz(ptr noundef @.str.3)
  call void (ptr, ...) @_ZN5Yosys3logEPKcz(ptr noundef @.str.23)
  call void (ptr, ...) @_ZN5Yosys3logEPKcz(ptr noundef @.str.24)
  call void (ptr, ...) @_ZN5Yosys3logEPKcz(ptr noundef @.str.3)
  call void (ptr, ...) @_ZN5Yosys3logEPKcz(ptr noundef @.str.25)
  call void (ptr, ...) @_ZN5Yosys3logEPKcz(ptr noundef @.str.26)
  call void (ptr, ...) @_ZN5Yosys3logEPKcz(ptr noundef @.str.3)
  call void (ptr, ...) @_ZN5Yosys3logEPKcz(ptr noundef @.str.27)
  call void (ptr, ...) @_ZN5Yosys3logEPKcz(ptr noundef @.str.28)
  call void (ptr, ...) @_ZN5Yosys3logEPKcz(ptr noundef @.str.29)
  call void (ptr, ...) @_ZN5Yosys3logEPKcz(ptr noundef @.str.30)
  call void (ptr, ...) @_ZN5Yosys3logEPKcz(ptr noundef @.str.3)
  ret void
}